
Discarded input sections

 .bss           0x00000000        0x0 /tmp/ccfkxpAT.o
 .bss           0x00000000        0x0 /tmp/cc7ZalyA.o
 .bss           0x00000000        0x0 /tmp/ccgPBGT8.o
 .bss           0x00000000        0x0 /tmp/ccIV7wIG.o
 .bss           0x00000000        0x0 /tmp/cc5U6Y3x.o
 .bss           0x00000000        0x0 /tmp/ccEYxaHs.o
 .bss           0x00000000        0x0 /tmp/ccoUOfHK.o
 .bss           0x00000000        0x0 /tmp/cconmgFU.o

Memory Configuration

Name             Origin             Length             Attributes
FLASH            0x08010000         0x00070000         xr
RAM              0x20000000         0x00020000         xrw
*default*        0x00000000         0xffffffff

Linker script and memory map

LOAD /tmp/ccfkxpAT.o
LOAD /tmp/cc7ZalyA.o
LOAD /tmp/ccgPBGT8.o
LOAD /tmp/ccIV7wIG.o
LOAD /tmp/cc5U6Y3x.o
LOAD /tmp/ccEYxaHs.o
LOAD /tmp/cctLLigg.o
LOAD /tmp/ccoUOfHK.o
LOAD /tmp/cconmgFU.o

.isr_vector     0x08010000      0x100
                0x08010000                        . = ALIGN (0x4)
 *(.isr_vector)
 .isr_vector    0x08010000      0x100 /tmp/cconmgFU.o
                0x08010000                IV
                0x08010100                        . = ALIGN (0x4)

.text           0x08010100      0x7b0
                0x08010100                        _start_text = .
 *(.text*)
 .text          0x08010100      0x130 /tmp/ccfkxpAT.o
                0x0801016c                button_setup
                0x0801020c                get_button_state
 .text          0x08010230       0xf4 /tmp/cc7ZalyA.o
                0x08010230                led_setup
                0x080102b0                led_on
                0x080102d8                led_off
                0x08010300                led_toggle
 .text          0x08010324      0x1a8 /tmp/ccgPBGT8.o
                0x08010324                flash_init
                0x08010344                clock_config
                0x08010478                Delay
                0x080104b4                SoftwareReset
 .text          0x080104cc       0x64 /tmp/ccIV7wIG.o
                0x080104cc                systick_enable
                0x08010500                systick_disable
                0x0801051c                get_tick
 .text          0x08010530      0x110 /tmp/cc5U6Y3x.o
                0x0801059c                timer_init
                0x080105e4                timer_start_IT
 .text          0x08010640      0x12c /tmp/ccEYxaHs.o
                0x080106b4                uart_init
                0x08010728                uart_write
 .text          0x0801076c       0x78 /tmp/cctLLigg.o
                0x0801076c                isr_systick
                0x08010788                isr_tim2
                0x080107bc                isr_exti4
 .text          0x080107e4       0x54 /tmp/ccoUOfHK.o
                0x080107e4                main
 .text          0x08010838       0x58 /tmp/cconmgFU.o
                0x08010838                isr_reset
                0x0801087c                isr_fault
                0x08010884                isr_empty
 *(.rodata*)
 .rodata        0x08010890       0x20 /tmp/ccoUOfHK.o
                0x080108b0                        . = ALIGN (0x4)
                0x080108b0                        _end_text = .
                0x080108b0                        _stored_data = .

.glue_7         0x080108b0        0x0
 .glue_7        0x080108b0        0x0 linker stubs

.glue_7t        0x080108b0        0x0
 .glue_7t       0x080108b0        0x0 linker stubs

.vfp11_veneer   0x080108b0        0x0
 .vfp11_veneer  0x080108b0        0x0 linker stubs

.v4_bx          0x080108b0        0x0
 .v4_bx         0x080108b0        0x0 linker stubs

.iplt           0x080108b0        0x0
 .iplt          0x080108b0        0x0 /tmp/cc7ZalyA.o

.rel.dyn        0x080108b0        0x0
 .rel.iplt      0x080108b0        0x0 /tmp/cc7ZalyA.o

.data           0x20000000        0x0 load address 0x080108b0
                0x20000000                        _start_data = .
 *(.data*)
 .data          0x20000000        0x0 /tmp/ccfkxpAT.o
 .data          0x20000000        0x0 /tmp/cc7ZalyA.o
 .data          0x20000000        0x0 /tmp/ccgPBGT8.o
 .data          0x20000000        0x0 /tmp/ccIV7wIG.o
 .data          0x20000000        0x0 /tmp/cc5U6Y3x.o
 .data          0x20000000        0x0 /tmp/ccEYxaHs.o
 .data          0x20000000        0x0 /tmp/cctLLigg.o
 .data          0x20000000        0x0 /tmp/ccoUOfHK.o
 .data          0x20000000        0x0 /tmp/cconmgFU.o
                0x20000000                        . = ALIGN (0x4)
                0x20000000                        _end_data = .

.igot.plt       0x20000000        0x0 load address 0x080108b0
 .igot.plt      0x20000000        0x0 /tmp/cc7ZalyA.o

.bss            0x20000000        0xc load address 0x080108b0
                0x20000000                        _start_bss = .
 *(.bss*)
 .bss           0x20000000        0xc /tmp/cctLLigg.o
                0x20000000                ticks
                0x20000004                timer_flag
                0x20000005                button_flag
 *(COMMON)
                0x2000000c                        . = ALIGN (0x4)
                0x2000000c                        _end_bss = .
                0x2000000c                        _end = .
                0x20020000                        END_STACK = (ORIGIN (RAM) + LENGTH (RAM))
OUTPUT(build/app.elf elf32-littlearm)
LOAD linker stubs

.debug_info     0x00000000      0xd60
 .debug_info    0x00000000      0x22a /tmp/ccfkxpAT.o
 .debug_info    0x0000022a      0x143 /tmp/cc7ZalyA.o
 .debug_info    0x0000036d      0x145 /tmp/ccgPBGT8.o
 .debug_info    0x000004b2       0xbb /tmp/ccIV7wIG.o
 .debug_info    0x0000056d      0x165 /tmp/cc5U6Y3x.o
 .debug_info    0x000006d2      0x22f /tmp/ccEYxaHs.o
 .debug_info    0x00000901      0x161 /tmp/cctLLigg.o
 .debug_info    0x00000a62      0x1a1 /tmp/ccoUOfHK.o
 .debug_info    0x00000c03      0x15d /tmp/cconmgFU.o

.debug_abbrev   0x00000000      0x7b8
 .debug_abbrev  0x00000000      0x116 /tmp/ccfkxpAT.o
 .debug_abbrev  0x00000116       0xa4 /tmp/cc7ZalyA.o
 .debug_abbrev  0x000001ba       0xf8 /tmp/ccgPBGT8.o
 .debug_abbrev  0x000002b2       0x82 /tmp/ccIV7wIG.o
 .debug_abbrev  0x00000334       0xdd /tmp/cc5U6Y3x.o
 .debug_abbrev  0x00000411       0xf9 /tmp/ccEYxaHs.o
 .debug_abbrev  0x0000050a       0xd2 /tmp/cctLLigg.o
 .debug_abbrev  0x000005dc       0xf4 /tmp/ccoUOfHK.o
 .debug_abbrev  0x000006d0       0xe8 /tmp/cconmgFU.o

.debug_aranges  0x00000000      0x120
 .debug_aranges
                0x00000000       0x20 /tmp/ccfkxpAT.o
 .debug_aranges
                0x00000020       0x20 /tmp/cc7ZalyA.o
 .debug_aranges
                0x00000040       0x20 /tmp/ccgPBGT8.o
 .debug_aranges
                0x00000060       0x20 /tmp/ccIV7wIG.o
 .debug_aranges
                0x00000080       0x20 /tmp/cc5U6Y3x.o
 .debug_aranges
                0x000000a0       0x20 /tmp/ccEYxaHs.o
 .debug_aranges
                0x000000c0       0x20 /tmp/cctLLigg.o
 .debug_aranges
                0x000000e0       0x20 /tmp/ccoUOfHK.o
 .debug_aranges
                0x00000100       0x20 /tmp/cconmgFU.o

.debug_line     0x00000000      0x91a
 .debug_line    0x00000000      0x125 /tmp/ccfkxpAT.o
 .debug_line    0x00000125       0xf6 /tmp/cc7ZalyA.o
 .debug_line    0x0000021b      0x1c9 /tmp/ccgPBGT8.o
 .debug_line    0x000003e4       0xb8 /tmp/ccIV7wIG.o
 .debug_line    0x0000049c      0x105 /tmp/cc5U6Y3x.o
 .debug_line    0x000005a1      0x138 /tmp/ccEYxaHs.o
 .debug_line    0x000006d9       0xb4 /tmp/cctLLigg.o
 .debug_line    0x0000078d       0xe3 /tmp/ccoUOfHK.o
 .debug_line    0x00000870       0xaa /tmp/cconmgFU.o

.debug_str      0x00000000      0x417
 .debug_str     0x00000000      0x417 /tmp/ccfkxpAT.o
                                0x1e7 (size before relaxing)
 .debug_str     0x00000417      0x17e /tmp/cc7ZalyA.o
 .debug_str     0x00000417      0x194 /tmp/ccgPBGT8.o
 .debug_str     0x00000417      0x14d /tmp/ccIV7wIG.o
 .debug_str     0x00000417      0x182 /tmp/cc5U6Y3x.o
 .debug_str     0x00000417      0x1aa /tmp/ccEYxaHs.o
 .debug_str     0x00000417      0x199 /tmp/cctLLigg.o
 .debug_str     0x00000417      0x1c9 /tmp/ccoUOfHK.o
 .debug_str     0x00000417      0x19f /tmp/cconmgFU.o

.comment        0x00000000       0x26
 .comment       0x00000000       0x26 /tmp/ccfkxpAT.o
                                 0x27 (size before relaxing)
 .comment       0x00000026       0x27 /tmp/cc7ZalyA.o
 .comment       0x00000026       0x27 /tmp/ccgPBGT8.o
 .comment       0x00000026       0x27 /tmp/ccIV7wIG.o
 .comment       0x00000026       0x27 /tmp/cc5U6Y3x.o
 .comment       0x00000026       0x27 /tmp/ccEYxaHs.o
 .comment       0x00000026       0x27 /tmp/cctLLigg.o
 .comment       0x00000026       0x27 /tmp/ccoUOfHK.o
 .comment       0x00000026       0x27 /tmp/cconmgFU.o

.ARM.attributes
                0x00000000       0x2e
 .ARM.attributes
                0x00000000       0x2e /tmp/ccfkxpAT.o
 .ARM.attributes
                0x0000002e       0x2e /tmp/cc7ZalyA.o
 .ARM.attributes
                0x0000005c       0x2e /tmp/ccgPBGT8.o
 .ARM.attributes
                0x0000008a       0x2e /tmp/ccIV7wIG.o
 .ARM.attributes
                0x000000b8       0x2e /tmp/cc5U6Y3x.o
 .ARM.attributes
                0x000000e6       0x2e /tmp/ccEYxaHs.o
 .ARM.attributes
                0x00000114       0x2e /tmp/cctLLigg.o
 .ARM.attributes
                0x00000142       0x2e /tmp/ccoUOfHK.o
 .ARM.attributes
                0x00000170       0x2e /tmp/cconmgFU.o

.debug_frame    0x00000000      0x458
 .debug_frame   0x00000000       0x9c /tmp/ccfkxpAT.o
 .debug_frame   0x0000009c       0x8c /tmp/cc7ZalyA.o
 .debug_frame   0x00000128       0x94 /tmp/ccgPBGT8.o
 .debug_frame   0x000001bc       0x70 /tmp/ccIV7wIG.o
 .debug_frame   0x0000022c       0xa4 /tmp/cc5U6Y3x.o
 .debug_frame   0x000002d0       0x84 /tmp/ccEYxaHs.o
 .debug_frame   0x00000354       0x70 /tmp/cctLLigg.o
 .debug_frame   0x000003c4       0x2c /tmp/ccoUOfHK.o
 .debug_frame   0x000003f0       0x68 /tmp/cconmgFU.o
